target datalayout = "e-m:e-p270:32:32-p271:32:32-p272:64:64-i64:64-i128:128-f80:128-n8:16:32:64-S128"
target triple = "x86_64-pc-linux-gnu"

@.str.3 = private unnamed_addr constant [2 x i8] c"\0A\00", align 1
@.str.4 = private unnamed_addr constant [36 x i8] c"    muxcover [options] [selection]\0A\00", align 1
@.str.5 = private unnamed_addr constant [55 x i8] c"Cover trees of $_MUX_ cells with $_MUX{4,8,16}_ cells\0A\00", align 1
@.str.6 = private unnamed_addr constant [47 x i8] c"    -mux4[=cost], -mux8[=cost], -mux16[=cost]\0A\00", align 1
@.str.7 = private unnamed_addr constant [78 x i8] c"        Cover $_MUX_ trees using the specified types of MUXes (with optional\0A\00", align 1
@.str.8 = private unnamed_addr constant [79 x i8] c"        integer costs). If none of these options are given, the effect is the\0A\00", align 1
@.str.9 = private unnamed_addr constant [37 x i8] c"        same as if all of them are.\0A\00", align 1
@.str.10 = private unnamed_addr constant [53 x i8] c"        Default costs: $_MUX4_ = %d, $_MUX8_ = %d, \0A\00", align 1
@.str.11 = private unnamed_addr constant [38 x i8] c"                       $_MUX16_ = %d\0A\00", align 1
@.str.12 = private unnamed_addr constant [16 x i8] c"    -mux2=cost\0A\00", align 1
@.str.13 = private unnamed_addr constant [81 x i8] c"        Use the specified cost for $_MUX_ cells when making covering decisions.\0A\00", align 1
@.str.14 = private unnamed_addr constant [35 x i8] c"        Default cost: $_MUX_ = %d\0A\00", align 1
@.str.15 = private unnamed_addr constant [16 x i8] c"    -dmux=cost\0A\00", align 1
@.str.16 = private unnamed_addr constant [67 x i8] c"        Use the specified cost for $_MUX_ cells used in decoders.\0A\00", align 1
@.str.17 = private unnamed_addr constant [26 x i8] c"        Default cost: %d\0A\00", align 1
@.str.18 = private unnamed_addr constant [15 x i8] c"    -nodecode\0A\00", align 1
@.str.19 = private unnamed_addr constant [74 x i8] c"        Do not insert decoder logic. This reduces the number of possible\0A\00", align 1
@.str.20 = private unnamed_addr constant [73 x i8] c"        substitutions, but guarantees that the resulting circuit is not\0A\00", align 1
@.str.21 = private unnamed_addr constant [51 x i8] c"        less efficient than the original circuit.\0A\00", align 1
@.str.22 = private unnamed_addr constant [16 x i8] c"    -nopartial\0A\00", align 1
@.str.23 = private unnamed_addr constant [73 x i8] c"        Do not consider mappings that use $_MUX<N>_ to select from less\0A\00", align 1
@.str.24 = private unnamed_addr constant [37 x i8] c"        than <N> different signals.\0A\00", align 1

; Function Attrs: mustprogress uwtable
define internal void @_ZN12_GLOBAL__N_112MuxcoverPass4helpEv(ptr noundef nonnull align 8 dereferenceable(104) %0) unnamed_addr #4 align 2 {
  %2 = alloca ptr, align 8
  store ptr %0, ptr %2, align 8
  call void (ptr, ...) @_ZN5Yosys3logEPKcz(ptr noundef @.str.3)
  call void (ptr, ...) @_ZN5Yosys3logEPKcz(ptr noundef @.str.4)
  call void (ptr, ...) @_ZN5Yosys3logEPKcz(ptr noundef @.str.3)
  call void (ptr, ...) @_ZN5Yosys3logEPKcz(ptr noundef @.str.5)
  call void (ptr, ...) @_ZN5Yosys3logEPKcz(ptr noundef @.str.3)
  call void (ptr, ...) @_ZN5Yosys3logEPKcz(ptr noundef @.str.6)
  call void (ptr, ...) @_ZN5Yosys3logEPKcz(ptr noundef @.str.7)
  call void (ptr, ...) @_ZN5Yosys3logEPKcz(ptr noundef @.str.8)
  call void (ptr, ...) @_ZN5Yosys3logEPKcz(ptr noundef @.str.9)
  call void (ptr, ...) @_ZN5Yosys3logEPKcz(ptr noundef @.str.10, i32 noundef 220, i32 noundef 460)
  call void (ptr, ...) @_ZN5Yosys3logEPKcz(ptr noundef @.str.11, i32 noundef 940)
  call void (ptr, ...) @_ZN5Yosys3logEPKcz(ptr noundef @.str.3)
  call void (ptr, ...) @_ZN5Yosys3logEPKcz(ptr noundef @.str.12)
  call void (ptr, ...) @_ZN5Yosys3logEPKcz(ptr noundef @.str.13)
  call void (ptr, ...) @_ZN5Yosys3logEPKcz(ptr noundef @.str.14, i32 noundef 100)
  call void (ptr, ...) @_ZN5Yosys3logEPKcz(ptr noundef @.str.3)
  call void (ptr, ...) @_ZN5Yosys3logEPKcz(ptr noundef @.str.15)
  call void (ptr, ...) @_ZN5Yosys3logEPKcz(ptr noundef @.str.16)
  call void (ptr, ...) @_ZN5Yosys3logEPKcz(ptr noundef @.str.17, i32 noundef 90)
  call void (ptr, ...) @_ZN5Yosys3logEPKcz(ptr noundef @.str.3)
  call void (ptr, ...) @_ZN5Yosys3logEPKcz(ptr noundef @.str.18)
  call void (ptr, ...) @_ZN5Yosys3logEPKcz(ptr noundef @.str.19)
  call void (ptr, ...) @_ZN5Yosys3logEPKcz(ptr noundef @.str.20)
  call void (ptr, ...) @_ZN5Yosys3logEPKcz(ptr noundef @.str.21)
  call void (ptr, ...) @_ZN5Yosys3logEPKcz(ptr noundef @.str.3)
  call void (ptr, ...) @_ZN5Yosys3logEPKcz(ptr noundef @.str.22)
  call void (ptr, ...) @_ZN5Yosys3logEPKcz(ptr noundef @.str.23)
  call void (ptr, ...) @_ZN5Yosys3logEPKcz(ptr noundef @.str.24)
  call void (ptr, ...) @_ZN5Yosys3logEPKcz(ptr noundef @.str.3)
  ret void
}